(dp0
S'cookies'
p1
(dp2
S'webwx_data_ticket'
p3
S'gSdLYvvOrI0PGyBuQWzC0JVo'
p4
sS'wxuin'
p5
S'1249375374'
p6
sS'webwxuvid'
p7
S'f483188cfecc1d254bd910a09575685265bedc3f2dcf319d2a74fd1c8a6b3b8a24cd0fe9dbec8e37d991e5db5fc234b6'
p8
sS'webwx_auth_ticket'
p9
S'CIsBEK/i7J8GGoABuOQ58GxFIeJPTjgY/KSnDZa3VHUzrGW+456fK5LaFdKUijsNX5ezqfLCBsK6HAHlu5atGo0e8E4kQ5KZah5TRAUndfqDgvpWaeaMAdGP7dUvS4rgTRxGsmAUO7SU0UigKpE81ZKRtbIkuC5uXGkgtKgCIRyeqAdHOLVSod9NTmE='
p10
sS'wxloadtime'
p11
S'1498193687_expired'
p12
sS'wxpluginkey'
p13
S'1498178522'
p14
sS'wxsid'
p15
S'17coIfqthX+3r5ON'
p16
sS'mm_lang'
p17
S'zh_CN'
p18
ssS'version'
p19
S'1.3.7'
p20
sS'storage'
p21
(dp22
S'userName'
p23
V@7ffcd0f4961a080863d11f6f0971062f6df99c29cdbfc9bac63bf4ef46f4fc77
p24
sS'lastInputUserName'
p25
NsS'memberList'
p26
ccopy_reg
_reconstructor
p27
(citchat.storage.templates
ContactList
p28
c__builtin__
list
p29
(lp30
g27
(citchat.storage.templates
User
p31
c__builtin__
dict
p32
(dp33
S'UserName'
p34
g24
sS'City'
p35
S''
p36
sS'DisplayName'
p37
g36
sS'UniFriend'
p38
I0
sS'OwnerUin'
p39
I0
sS'MemberList'
p40
g27
(g28
g29
(lp41
tp42
Rp43
I1
bsS'PYQuanPin'
p44
V
p45
sS'RemarkPYInitial'
p46
g45
sS'Uin'
p47
I1249375374
sS'AppAccountFlag'
p48
I0
sS'VerifyFlag'
p49
I0
sS'Province'
p50
g36
sS'KeyWord'
p51
g36
sS'RemarkName'
p52
g45
sS'PYInitial'
p53
g45
sS'ChatRoomId'
p54
I0
sS'HideInputBarFlag'
p55
I0
sVHeadImgFlag
p56
I1
sS'EncryChatRoomId'
p57
g36
sS'AttrStatus'
p58
I0
sS'SnsFlag'
p59
I1
sS'MemberCount'
p60
I0
sVWebWxPluginSwitch
p61
I0
sS'Alias'
p62
g36
sS'Signature'
p63
g45
sS'ContactFlag'
p64
I0
sS'NickName'
p65
V\u5c0f\u592a\u9633
p66
sS'RemarkPYQuanPin'
p67
g45
sS'HeadImgUrl'
p68
V/cgi-bin/mmwebwx-bin/webwxgeticon?seq=316727149&username=@7ffcd0f4961a080863d11f6f0971062f6df99c29cdbfc9bac63bf4ef46f4fc77&skey=@crypt_9984c26c_92f835bff0f24c6f13eb17b9293ac00b
p69
sS'Sex'
p70
I0
sS'StarFriend'
p71
I0
sS'Statues'
p72
I0
stp73
Rp74
I1
bag27
(g31
g32
(dp75
VUserName
p76
V@44ce6a6589d9f999f8e75c41c32b8de8
p77
sVCity
p78
V\u897f\u5b89
p79
sVSnsFlag
p80
I17
sVDisplayName
p81
g45
sVUniFriend
p82
I0
sVMemberCount
p83
I0
sVOwnerUin
p84
I0
sVMemberList
p85
g43
sVAlias
p86
g45
sVPYQuanPin
p87
Vlabulaka
p88
sVSignature
p89
Vwww.labulaka.me
p90
sVRemarkPYInitial
p91
g45
sVContactFlag
p92
I3
sVUin
p93
I0
sVNickName
p94
V\u62c9\u5e03\u62c9\u5361
p95
sVAppAccountFlag
p96
I0
sVVerifyFlag
p97
I0
sVRemarkPYQuanPin
p98
g45
sVHeadImgUrl
p99
V/cgi-bin/mmwebwx-bin/webwxgeticon?seq=670010515&username=@44ce6a6589d9f999f8e75c41c32b8de8&skey=@crypt_9984c26c_92f835bff0f24c6f13eb17b9293ac00b
p100
sVKeyWord
p101
Vw11
p102
sVProvince
p103
V\u9655\u897f
p104
sVPYInitial
p105
VLBLK
p106
sVRemarkName
p107
g45
sVStarFriend
p108
I0
sVSex
p109
I1
sVIsOwner
p110
I0
sVHideInputBarFlag
p111
I0
sVChatRoomId
p112
I0
sVEncryChatRoomId
p113
g45
sVAttrStatus
p114
I50500477
sVStatues
p115
I0
stp116
Rp117
I1
bag27
(g31
g32
(dp118
VUserName
p119
V@59471a2273d6136a124a6c3e13932c865eea407f09f087c50ce4e5ae49bd965c
p120
sVCity
p121
V\u897f\u5b89
p122
sVSnsFlag
p123
I1
sVDisplayName
p124
g45
sVUniFriend
p125
I0
sVMemberCount
p126
I0
sVOwnerUin
p127
I0
sVMemberList
p128
g43
sVAlias
p129
g45
sVPYQuanPin
p130
Vchoubaguai
p131
sVSignature
p132
V\u5982\u679c\u5931\u53bb\u4e86\u4f60\uff0c\u8d62\u4e86\u4e16\u754c\u53c8\u5982\u4f55\u3002
p133
sVRemarkPYInitial
p134
g45
sVContactFlag
p135
I3
sVUin
p136
I0
sVNickName
p137
V\u4e11\u516b\u602a
p138
sVAppAccountFlag
p139
I0
sVVerifyFlag
p140
I0
sVRemarkPYQuanPin
p141
g45
sVHeadImgUrl
p142
V/cgi-bin/mmwebwx-bin/webwxgeticon?seq=670012263&username=@59471a2273d6136a124a6c3e13932c865eea407f09f087c50ce4e5ae49bd965c&skey=@crypt_9984c26c_92f835bff0f24c6f13eb17b9293ac00b
p143
sVKeyWord
p144
g45
sVProvince
p145
V\u9655\u897f
p146
sVPYInitial
p147
VCBG
p148
sVRemarkName
p149
g45
sVStarFriend
p150
I0
sVSex
p151
I1
sVIsOwner
p152
I0
sVHideInputBarFlag
p153
I0
sVChatRoomId
p154
I0
sVEncryChatRoomId
p155
g45
sVAttrStatus
p156
I4197
sVStatues
p157
I0
stp158
Rp159
I1
batp160
Rp161
I1
bsS'chatroomList'
p162
g27
(g28
g29
(lp163
tp164
Rp165
I1
bsS'nickName'
p166
g66
sS'mpList'
p167
g27
(g28
g29
(lp168
tp169
Rp170
I1
bssS'loginInfo'
p171
(dp172
S'SyncKey'
p173
(dp174
VCount
p175
I8
sVList
p176
(lp177
(dp178
VVal
p179
I670013557
sVKey
p180
I1
sa(dp181
VVal
p182
I670013727
sVKey
p183
I2
sa(dp184
VVal
p185
I670013384
sVKey
p186
I3
sa(dp187
VVal
p188
I670010032
sVKey
p189
I11
sa(dp190
VVal
p191
I670010032
sVKey
p192
I13
sa(dp193
VVal
p194
I1498193980
sVKey
p195
I201
sa(dp196
VVal
p197
I1498178522
sVKey
p198
I1000
sa(dp199
VVal
p200
I1498178552
sVKey
p201
I1001
sassS'syncUrl'
p202
S'https://webpush.wx.qq.com/cgi-bin/mmwebwx-bin'
p203
sS'skey'
p204
V@crypt_9984c26c_92f835bff0f24c6f13eb17b9293ac00b
p205
sS'wxuin'
p206
V1249375374
p207
sS'synckey'
p208
S'1_670013557|2_670013727|3_670013384|11_670010032|13_670010032|201_1498193980|1000_1498178522|1001_1498178552'
p209
sS'url'
p210
Vhttps://wx.qq.com/cgi-bin/mmwebwx-bin
p211
sS'pass_ticket'
p212
VF2wdEF6GtdexbrnqHwZ23SOGcfbhdUynCyWJJCnTMsMfnGB9G1MlDSlZfhNRrzv9
p213
sS'wxsid'
p214
V17coIfqthX+3r5ON
p215
sS'BaseRequest'
p216
(dp217
g47
g207
sS'Skey'
p218
g205
sS'DeviceID'
p219
g213
sS'Sid'
p220
g215
ssS'User'
p221
g27
(g31
g32
(dp222
g34
g24
sg35
g36
sg37
g36
sg38
I0
sg40
g43
sg44
g45
sg46
g45
sg70
I0
sg48
I0
sg49
I0
sg50
g36
sg51
g36
sg52
g45
sg53
g45
sg54
I0
sg55
I0
sg56
I1
sg57
g36
sg58
I0
sg61
I0
sg59
I1
sg60
I0
sg39
I0
sg62
g36
sg63
g45
sg64
I0
sg65
g66
sg67
g45
sg68
g69
sg47
I1249375374
sg71
I0
sg72
I0
stp223
Rp224
I1
bsS'fileUrl'
p225
S'https://file.wx.qq.com/cgi-bin/mmwebwx-bin'
p226
sS'InviteStartCount'
p227
I40
sS'deviceid'
p228
S'e431442886007536'
p229
ss.